(dp0
S'delays'
p1
c__builtin__
set
p2
((lp3
tp4
Rp5
sS'tsteps'
p6
g2
((lp7
tp8
Rp9
sS'clses'
p10
g2
((lp11
tp12
Rp13
s.(dp0
S'nrej'
p1
(dp2
sS'l_p'
p3
(dp4
sS'nl_p'
p5
(dp6
sS'nl_ti'
p7
(dp8
s.(dp0
S'random_t35_d20_r6_172642100.mat'
p1
I00
sS'random_t35_d10_r5_175156390.mat'
p2
I00
sS'random_t35_d30_r5_175213862.mat'
p3
I00
sS'random_t35_d10_r8_172632284.mat'
p4
I00
sS'random_t35_d20_r10_175458997.mat'
p5
I00
sS'random_t35_d1_r3_172637874.mat'
p6
I00
sS'random_t35_d5_r9_172726530.mat'
p7
I00
sS'random_t35_d10_r9_172688582.mat'
p8
I00
sS'random_t35_d10_r4_172676052.mat'
p9
I00
sS'random_t35_d1_r6_172658980.mat'
p10
I00
sS'random_t35_d5_r2_172708988.mat'
p11
I00
sS'random_t35_d5_r6_172732600.mat'
p12
I00
sS'random_t35_d30_r7_175205366.mat'
p13
I00
sS'random_t35_d20_r8_172700904.mat'
p14
I00
sS'random_t35_d1_r9_172680086.mat'
p15
I00
sS'random_t35_d20_r10_175486173.mat'
p16
I00
sS'random_t35_d1_r9_172652910.mat'
p17
I00
sS'random_t35_d10_r4_175181020.mat'
p18
I00
sS'random_t35_d1_r3_170121690.mat'
p19
I00
sS'random_t35_d30_r8_175207912.mat'
p20
I00
sS'random_t35_d5_r10_170523105.mat'
p21
I00
sS'random_t35_d5_r6_172719012.mat'
p22
I00
sS'random_t35_d1_r4_172667556.mat'
p23
I00
sS'random_t35_d30_r3_175208770.mat'
p24
I00
sS'random_t35_d1_r8_172677580.mat'
p25
I00
sS'random_t35_d30_r6_172656928.mat'
p26
I00
sS'random_t35_d30_r7_175218954.mat'
p27
I00
sS'random_t35_d5_r9_170249030.mat'
p28
I00
sS'random_t35_d5_r3_172725082.mat'
p29
I00
sS'random_t35_d10_r7_172629778.mat'
p30
I00
sS'random_t35_d1_r6_170182880.mat'
p31
I00
sS'random_t35_d10_r6_172627272.mat'
p32
I00
sS'random_t35_d5_r7_170244098.mat'
p33
I00
sS'random_t35_d10_r7_175161482.mat'
p34
I00
sS'random_t35_d5_r6_172705424.mat'
p35
I00
sS'random_t35_d20_r3_172634582.mat'
p36
I00
sS'random_t35_d5_r4_172700412.mat'
p37
I00
sS'random_t35_d30_r6_172710720.mat'
p38
I00
sS'random_t35_d30_r4_175211316.mat'
p39
I00
sS'random_t35_d5_r8_172724024.mat'
p40
I00
sS'random_t35_d20_r8_175179176.mat'
p41
I00
sS'random_t35_d10_r3_172673546.mat'
p42
I00
sS'random_t35_d10_r9_175166574.mat'
p43
I00
sS'random_t35_d1_r7_172647898.mat'
p44
I00
sS'random_t35_d10_r8_175177616.mat'
p45
I00
sS'random_t35_d1_r8_172663992.mat'
p46
I00
sS'random_t35_d30_r7_172713226.mat'
p47
I00
sS'random_t35_d30_r7_175191778.mat'
p48
I00
sS'random_t35_d1_r5_172642886.mat'
p49
I00
sS'random_t35_d20_r4_175168992.mat'
p50
I00
sS'random_t35_d20_r5_175198714.mat'
p51
I00
sS'random_t35_d1_r5_170180414.mat'
p52
I00
sS'random_t35_d10_r6_172681064.mat'
p53
I00
sS'random_t35_d20_r7_175190218.mat'
p54
I00
sS'random_t35_d10_r6_175186112.mat'
p55
I00
sS'random_t35_d1_r5_170126622.mat'
p56
I00
sS'random_t35_d10_r2_172617248.mat'
p57
I00
sS'random_t35_d1_r9_170190278.mat'
p58
I00
sS'random_t35_d30_r6_175202820.mat'
p59
I00
sS'random_t35_d5_r4_170236700.mat'
p60
I00
sS'random_t35_d10_r2_175162340.mat'
p61
I00
sS'random_t35_d5_r4_172727588.mat'
p62
I00
sS'random_t35_d20_r6_175187672.mat'
p63
I00
sS'random_t35_d20_r7_172698398.mat'
p64
I00
sS'random_t35_d10_r4_172622260.mat'
p65
I00
sS'random_t35_d1_r4_172653968.mat'
p66
I00
sS'random_t35_d5_r7_170190306.mat'
p67
I00
sS'random_t35_d1_r5_172656474.mat'
p68
I00
sS'random_t35_d5_r8_172737612.mat'
p69
I00
sS'random_t35_d20_r7_175176630.mat'
p70
I00
sS'random_t35_d1_r5_172670062.mat'
p71
I00
sS'random_t35_d20_r9_175181722.mat'
p72
I00
sS'random_t35_d5_r9_172740118.mat'
p73
I00
sS'random_t35_d20_r5_175185126.mat'
p74
I00
sS'random_t35_d5_r8_170192772.mat'
p75
I00
sS'random_t35_d20_r9_172649618.mat'
p76
I00
sS'random_t35_d30_r5_175186686.mat'
p77
I00
sS'random_t35_d30_r8_175221500.mat'
p78
I00
sS'random_t35_d10_r9_175180162.mat'
p79
I00
sS'random_t35_d10_r3_172619754.mat'
p80
I00
sS'random_t35_d1_r9_170136486.mat'
p81
I00
sS'random_t35_d20_r4_172690880.mat'
p82
I00
sS'random_t35_d20_r4_175196168.mat'
p83
I00
sS'random_t35_d10_r3_175164886.mat'
p84
I00
sS'random_t35_d20_r5_172693386.mat'
p85
I00
sS'random_t35_d20_r8_172647112.mat'
p86
I00
sS'random_t35_d30_r4_175184140.mat'
p87
I00
sS'random_t35_d20_r4_175182580.mat'
p88
I00
sS'random_t35_d30_r3_175181594.mat'
p89
I00
sS'random_t35_d10_r10_175471025.mat'
p90
I00
sS'random_t35_d1_r2_170173016.mat'
p91
I00
sS'random_t35_d10_r2_175148752.mat'
p92
I00
sS'random_t35_d10_r7_175175070.mat'
p93
I00
sS'random_t35_d10_r10_172964257.mat'
p94
I00
sS'random_t35_d1_r10_170410561.mat'
p95
I00
sS'random_t35_d1_r6_170129088.mat'
p96
I00
sS'random_t35_d20_r9_172703410.mat'
p97
I00
sS'random_t35_d20_r3_175193622.mat'
p98
I00
sS'random_t35_d5_r2_170231768.mat'
p99
I00
sS'random_t35_d20_r5_172639594.mat'
p100
I00
sS'random_t35_d20_r9_175195310.mat'
p101
I00
sS'random_t35_d30_r9_175224046.mat'
p102
I00
sS'random_t35_d30_r8_175194324.mat'
p103
I00
sS'random_t35_d30_r9_172664446.mat'
p104
I00
sS'random_t35_d5_r3_172697906.mat'
p105
I00
sS'random_t35_d20_r9_175208898.mat'
p106
I00
sS'random_t35_d1_r7_172661486.mat'
p107
I00
sS'random_t35_d20_r5_175171538.mat'
p108
I00
sS'random_t35_d10_r5_172624766.mat'
p109
I00
sS'random_t35_d30_r9_175196870.mat'
p110
I00
sS'random_t35_d20_r8_175206352.mat'
p111
I00
sS'random_t35_d5_r2_172695400.mat'
p112
I00
sS'random_t35_d30_r10_175474145.mat'
p113
I00
sS'random_t35_d5_r7_172707930.mat'
p114
I00
sS'random_t35_d5_r5_172702918.mat'
p115
I00
sS'random_t35_d5_r4_172714000.mat'
p116
I00
sS'random_t35_d20_r7_175203806.mat'
p117
I00
sS'random_t35_d10_r9_175193750.mat'
p118
I00
sS'random_t35_d10_r10_175443849.mat'
p119
I00
sS'random_t35_d5_r7_172735106.mat'
p120
I00
sS'random_t35_d5_r10_170469313.mat'
p121
I00
sS'random_t35_d1_r2_172648956.mat'
p122
I00
sS'random_t35_d10_r8_175191204.mat'
p123
I00
sS'random_t35_d1_r3_172665050.mat'
p124
I00
sS'random_t35_d5_r10_173002205.mat'
p125
I00
sS'random_t35_d30_r9_172718238.mat'
p126
I00
sS'random_t35_d30_r9_175210458.mat'
p127
I00
sS'random_t35_d20_r3_175166446.mat'
p128
I00
sS'random_t35_d20_r10_172979085.mat'
p129
I00
sS'random_t35_d1_r4_172640380.mat'
p130
I00
sS'random_t35_d20_r8_175192764.mat'
p131
I00
sS'random_t35_d5_r10_173015793.mat'
p132
I00
sS'random_t35_d20_r4_172637088.mat'
p133
I00
sS'random_t35_d30_r10_175487733.mat'
p134
I00
sS'random_t35_d5_r9_170195238.mat'
p135
I00
sS'random_t35_d1_r8_172650404.mat'
p136
I00
sS'random_t35_d10_r3_175178474.mat'
p137
I00
sS'random_t35_d5_r8_170246564.mat'
p138
I00
sS'random_t35_d30_r6_175216408.mat'
p139
I00
sS'random_t35_d5_r5_172730094.mat'
p140
I00
sS'random_t35_d1_r8_170187812.mat'
p141
I00
sS'random_t35_d10_r6_175158936.mat'
p142
I00
sS'random_t35_d10_r7_172683570.mat'
p143
I00
sS'random_t35_d5_r2_170177976.mat'
p144
I00
sS'random_t35_d30_r4_175197728.mat'
p145
I00
sS'random_t35_d1_r2_172635368.mat'
p146
I00
sS'random_t35_d30_r10_172993913.mat'
p147
I00
sS'random_t35_d30_r7_172659434.mat'
p148
I00
sS'random_t35_d5_r5_170239166.mat'
p149
I00
sS'random_t35_d1_r2_170119224.mat'
p150
I00
sS'random_t35_d30_r8_172715732.mat'
p151
I00
sS'random_t35_d5_r4_170182908.mat'
p152
I00
sS'random_t35_d20_r10_175472585.mat'
p153
I00
sS'random_t35_d10_r10_172910465.mat'
p154
I00
sS'random_t35_d30_r10_172940121.mat'
p155
I00
sS'random_t35_d10_r6_175172524.mat'
p156
I00
sS'random_t35_d30_r3_172649410.mat'
p157
I00
sS'random_t35_d1_r2_172662544.mat'
p158
I00
sS'random_t35_d10_r8_175164028.mat'
p159
I00
sS'random_t35_d5_r3_170180442.mat'
p160
I00
sS'random_t35_d1_r10_172955761.mat'
p161
I00
sS'random_t35_d5_r6_170241632.mat'
p162
I00
sS'random_t35_d10_r2_172671040.mat'
p163
I00
sS'random_t35_d30_r5_172708214.mat'
p164
I00
sS'random_t35_d1_r10_170464353.mat'
p165
I00
sS'random_t35_d1_r8_170134020.mat'
p166
I00
sS'random_t35_d20_r10_172925293.mat'
p167
I00
sS'random_t35_d1_r6_172672568.mat'
p168
I00
sS'random_t35_d30_r5_175200274.mat'
p169
I00
sS'random_t35_d10_r4_175153844.mat'
p170
I00
sS'random_t35_d5_r3_170234234.mat'
p171
I00
sS'random_t35_d20_r3_175180034.mat'
p172
I00
sS'random_t35_d10_r3_175151298.mat'
p173
I00
sS'random_t35_d30_r10_175501321.mat'
p174
I00
sS'random_t35_d30_r3_172703202.mat'
p175
I00
sS'random_t35_d30_r3_175195182.mat'
p176
I00
sS'random_t35_d30_r4_172705708.mat'
p177
I00
sS'random_t35_d10_r7_175188658.mat'
p178
I00
sS'random_t35_d1_r3_170175482.mat'
p179
I00
sS'random_t35_d5_r10_172988617.mat'
p180
I00
sS'random_t35_d10_r5_175169978.mat'
p181
I00
sS'random_t35_d5_r8_172710436.mat'
p182
I00
sS'random_t35_d1_r4_170124156.mat'
p183
I00
sS'random_t35_d1_r7_170185346.mat'
p184
I00
sS'random_t35_d10_r10_175457437.mat'
p185
I00
sS'random_t35_d1_r3_172651462.mat'
p186
I00
sS'random_t35_d10_r5_175183566.mat'
p187
I00
sS'random_t35_d1_r6_172645392.mat'
p188
I00
sS'random_t35_d5_r9_172712942.mat'
p189
I00
sS'random_t35_d10_r5_172678558.mat'
p190
I00
sS'random_t35_d20_r6_175201260.mat'
p191
I00
sS'random_t35_d1_r7_170131554.mat'
p192
I00
sS'random_t35_d5_r7_172721518.mat'
p193
I00
sS'random_t35_d30_r6_175189232.mat'
p194
I00
sS'random_t35_d5_r2_172722576.mat'
p195
I00
sS'random_t35_d1_r7_172675074.mat'
p196
I00
sS'random_t35_d20_r6_172695892.mat'
p197
I00
sS'random_t35_d1_r10_172928585.mat'
p198
I00
sS'random_t35_d1_r4_170177948.mat'
p199
I00
sS'random_t35_d30_r8_172661940.mat'
p200
I00
sS'random_t35_d5_r3_172711494.mat'
p201
I00
sS'random_t35_d30_r4_172651916.mat'
p202
I00
sS'random_t35_d5_r5_170185374.mat'
p203
I00
sS'random_t35_d30_r5_172654422.mat'
p204
I00
sS'random_t35_d5_r6_170187840.mat'
p205
I00
sS'random_t35_d10_r4_175167432.mat'
p206
I00
sS'random_t35_d10_r8_172686076.mat'
p207
I00
sS'random_t35_d5_r5_172716506.mat'
p208
I00
sS'random_t35_d1_r10_172942173.mat'
p209
I00
sS'random_t35_d20_r6_175174084.mat'
p210
I00
sS'random_t35_d10_r9_172634790.mat'
p211
I00
sS'random_t35_d20_r7_172644606.mat'
p212
I00
sS'random_t35_d1_r9_172666498.mat'
p213
I00
sS'random_t35_d20_r3_172688374.mat'
p214
I00
s.