(dp0
S'cc'
p1
c__builtin__
set
p2
((lp3
I1
aI10
aI20
aI5
aI30
atp4
Rp5
sS'ih'
p6
g2
((lp7
I1
aI10
aI20
aI5
aI30
atp8
Rp9
sS'clses'
p10
g2
((lp11
S'ts=35,tc=0.50,T=0.10'
p12
atp13
Rp14
s.(dp0
S'nrej'
p1
(dp2
S'ts=35,tc=0.50,T=0.10'
p3
(dp4
I1
(dp5
I1
I0
sI10
I0
sI20
I0
sI5
I0
sI30
I2
ssI10
(dp6
I1
I0
sI10
I0
sI20
I0
sI5
I1
sI30
I2
ssI20
(dp7
I1
I0
sI10
I0
sI20
I1
sI5
I0
sI30
I1
ssI5
(dp8
I1
I0
sI10
I0
sI20
I1
sI5
I0
sI30
I1
ssI30
(dp9
I1
I0
sI10
I1
sI20
I0
sI5
I0
sI30
I1
ssssS'l_p'
p10
(dp11
g3
(dp12
I1
(dp13
I1
(lp14
cnumpy.core.multiarray
scalar
p15
(cnumpy
dtype
p16
(S'i4'
p17
I0
I1
tp18
Rp19
(I3
S'<'
p20
NNNI-1
I-1
I0
tp21
bS'K\x00\x00\x00'
p22
tp23
Rp24
ag15
(g19
S'>\x00\x00\x00'
p25
tp26
Rp27
ag15
(g19
S'F\x00\x00\x00'
p28
tp29
Rp30
ag15
(g19
S'F\x00\x00\x00'
p31
tp32
Rp33
ag15
(g19
S'H\x00\x00\x00'
p34
tp35
Rp36
ag15
(g19
S'N\x00\x00\x00'
p37
tp38
Rp39
ag15
(g19
S'D\x00\x00\x00'
p40
tp41
Rp42
ag15
(g19
S'C\x00\x00\x00'
p43
tp44
Rp45
ag15
(g19
S'C\x00\x00\x00'
p46
tp47
Rp48
asI10
(lp49
g15
(g19
S'S\x00\x00\x00'
p50
tp51
Rp52
ag15
(g19
S'G\x00\x00\x00'
p53
tp54
Rp55
ag15
(g19
S'L\x00\x00\x00'
p56
tp57
Rp58
ag15
(g19
S'P\x00\x00\x00'
p59
tp60
Rp61
ag15
(g19
S'I\x00\x00\x00'
p62
tp63
Rp64
ag15
(g19
S'F\x00\x00\x00'
p65
tp66
Rp67
ag15
(g19
S'B\x00\x00\x00'
p68
tp69
Rp70
ag15
(g19
S'F\x00\x00\x00'
p71
tp72
Rp73
ag15
(g19
S'F\x00\x00\x00'
p74
tp75
Rp76
asI20
(lp77
g15
(g19
S'R\x00\x00\x00'
p78
tp79
Rp80
ag15
(g19
S'H\x00\x00\x00'
p81
tp82
Rp83
ag15
(g19
S'R\x00\x00\x00'
p84
tp85
Rp86
ag15
(g19
S'U\x00\x00\x00'
p87
tp88
Rp89
ag15
(g19
S'G\x00\x00\x00'
p90
tp91
Rp92
ag15
(g19
S'E\x00\x00\x00'
p93
tp94
Rp95
ag15
(g19
S'=\x00\x00\x00'
p96
tp97
Rp98
ag15
(g19
S'H\x00\x00\x00'
p99
tp100
Rp101
ag15
(g19
S'O\x00\x00\x00'
p102
tp103
Rp104
asI5
(lp105
g15
(g19
S'I\x00\x00\x00'
p106
tp107
Rp108
ag15
(g19
S'D\x00\x00\x00'
p109
tp110
Rp111
ag15
(g19
S'C\x00\x00\x00'
p112
tp113
Rp114
ag15
(g19
S'E\x00\x00\x00'
p115
tp116
Rp117
ag15
(g19
S'G\x00\x00\x00'
p118
tp119
Rp120
ag15
(g19
S'D\x00\x00\x00'
p121
tp122
Rp123
ag15
(g19
S'A\x00\x00\x00'
p124
tp125
Rp126
ag15
(g19
S'D\x00\x00\x00'
p127
tp128
Rp129
ag15
(g19
S'A\x00\x00\x00'
p130
tp131
Rp132
asI30
(lp133
g15
(g19
S'N\x00\x00\x00'
p134
tp135
Rp136
ag15
(g19
S'N\x00\x00\x00'
p137
tp138
Rp139
ag15
(g19
S'H\x00\x00\x00'
p140
tp141
Rp142
ag15
(g19
S'Q\x00\x00\x00'
p143
tp144
Rp145
ag15
(g19
S'F\x00\x00\x00'
p146
tp147
Rp148
ag15
(g19
S'=\x00\x00\x00'
p149
tp150
Rp151
ag15
(g19
S'<\x00\x00\x00'
p152
tp153
Rp154
assI10
(dp155
I1
(lp156
g15
(g19
S'G\x00\x00\x00'
p157
tp158
Rp159
ag15
(g19
S'I\x00\x00\x00'
p160
tp161
Rp162
ag15
(g19
S'N\x00\x00\x00'
p163
tp164
Rp165
ag15
(g19
S'C\x00\x00\x00'
p166
tp167
Rp168
ag15
(g19
S'H\x00\x00\x00'
p169
tp170
Rp171
ag15
(g19
S'E\x00\x00\x00'
p172
tp173
Rp174
ag15
(g19
S'?\x00\x00\x00'
p175
tp176
Rp177
ag15
(g19
S'R\x00\x00\x00'
p178
tp179
Rp180
ag15
(g19
S'?\x00\x00\x00'
p181
tp182
Rp183
asI10
(lp184
g15
(g19
S'Y\x00\x00\x00'
p185
tp186
Rp187
ag15
(g19
S'\\\x00\x00\x00'
p188
tp189
Rp190
ag15
(g19
S'P\x00\x00\x00'
p191
tp192
Rp193
ag15
(g19
S'U\x00\x00\x00'
p194
tp195
Rp196
ag15
(g19
S'J\x00\x00\x00'
p197
tp198
Rp199
ag15
(g19
S'J\x00\x00\x00'
p200
tp201
Rp202
ag15
(g19
S'A\x00\x00\x00'
p203
tp204
Rp205
ag15
(g19
S'O\x00\x00\x00'
p206
tp207
Rp208
ag15
(g19
S'I\x00\x00\x00'
p209
tp210
Rp211
asI20
(lp212
g15
(g19
S'F\x00\x00\x00'
p213
tp214
Rp215
ag15
(g19
S'H\x00\x00\x00'
p216
tp217
Rp218
ag15
(g19
S'G\x00\x00\x00'
p219
tp220
Rp221
ag15
(g19
S'G\x00\x00\x00'
p222
tp223
Rp224
ag15
(g19
S'I\x00\x00\x00'
p225
tp226
Rp227
ag15
(g19
S'P\x00\x00\x00'
p228
tp229
Rp230
ag15
(g19
S'6\x00\x00\x00'
p231
tp232
Rp233
ag15
(g19
S'N\x00\x00\x00'
p234
tp235
Rp236
ag15
(g19
S'O\x00\x00\x00'
p237
tp238
Rp239
asI5
(lp240
g15
(g19
S'[\x00\x00\x00'
p241
tp242
Rp243
ag15
(g19
S'G\x00\x00\x00'
p244
tp245
Rp246
ag15
(g19
S'F\x00\x00\x00'
p247
tp248
Rp249
ag15
(g19
S'S\x00\x00\x00'
p250
tp251
Rp252
ag15
(g19
S'N\x00\x00\x00'
p253
tp254
Rp255
ag15
(g19
S'8\x00\x00\x00'
p256
tp257
Rp258
ag15
(g19
S'<\x00\x00\x00'
p259
tp260
Rp261
ag15
(g19
S'?\x00\x00\x00'
p262
tp263
Rp264
asI30
(lp265
g15
(g19
S'K\x00\x00\x00'
p266
tp267
Rp268
ag15
(g19
S'O\x00\x00\x00'
p269
tp270
Rp271
ag15
(g19
S'F\x00\x00\x00'
p272
tp273
Rp274
ag15
(g19
S'H\x00\x00\x00'
p275
tp276
Rp277
ag15
(g19
S'?\x00\x00\x00'
p278
tp279
Rp280
ag15
(g19
S'D\x00\x00\x00'
p281
tp282
Rp283
assI20
(dp284
I1
(lp285
g15
(g19
S'\\\x00\x00\x00'
p286
tp287
Rp288
ag15
(g19
S'Q\x00\x00\x00'
p289
tp290
Rp291
ag15
(g19
S'Z\x00\x00\x00'
p292
tp293
Rp294
ag15
(g19
S'U\x00\x00\x00'
p295
tp296
Rp297
ag15
(g19
S'Y\x00\x00\x00'
p298
tp299
Rp300
ag15
(g19
S'>\x00\x00\x00'
p301
tp302
Rp303
ag15
(g19
S'W\x00\x00\x00'
p304
tp305
Rp306
ag15
(g19
S'B\x00\x00\x00'
p307
tp308
Rp309
asI10
(lp310
g15
(g19
S'J\x00\x00\x00'
p311
tp312
Rp313
ag15
(g19
S'[\x00\x00\x00'
p314
tp315
Rp316
ag15
(g19
S'[\x00\x00\x00'
p317
tp318
Rp319
ag15
(g19
S'U\x00\x00\x00'
p320
tp321
Rp322
ag15
(g19
S'Y\x00\x00\x00'
p323
tp324
Rp325
ag15
(g19
S'E\x00\x00\x00'
p326
tp327
Rp328
ag15
(g19
S'R\x00\x00\x00'
p329
tp330
Rp331
ag15
(g19
S'O\x00\x00\x00'
p332
tp333
Rp334
asI20
(lp335
g15
(g19
S'[\x00\x00\x00'
p336
tp337
Rp338
ag15
(g19
S'R\x00\x00\x00'
p339
tp340
Rp341
ag15
(g19
S'S\x00\x00\x00'
p342
tp343
Rp344
ag15
(g19
S'Z\x00\x00\x00'
p345
tp346
Rp347
ag15
(g19
S'Z\x00\x00\x00'
p348
tp349
Rp350
ag15
(g19
S'R\x00\x00\x00'
p351
tp352
Rp353
ag15
(g19
S'^\x00\x00\x00'
p354
tp355
Rp356
asI5
(lp357
g15
(g19
S'S\x00\x00\x00'
p358
tp359
Rp360
ag15
(g19
S'P\x00\x00\x00'
p361
tp362
Rp363
ag15
(g19
S'P\x00\x00\x00'
p364
tp365
Rp366
ag15
(g19
S'L\x00\x00\x00'
p367
tp368
Rp369
ag15
(g19
S'N\x00\x00\x00'
p370
tp371
Rp372
ag15
(g19
S'O\x00\x00\x00'
p373
tp374
Rp375
ag15
(g19
S'[\x00\x00\x00'
p376
tp377
Rp378
ag15
(g19
S'K\x00\x00\x00'
p379
tp380
Rp381
asI30
(lp382
g15
(g19
S'_\x00\x00\x00'
p383
tp384
Rp385
ag15
(g19
S'V\x00\x00\x00'
p386
tp387
Rp388
ag15
(g19
S'O\x00\x00\x00'
p389
tp390
Rp391
ag15
(g19
S'B\x00\x00\x00'
p392
tp393
Rp394
ag15
(g19
S'L\x00\x00\x00'
p395
tp396
Rp397
ag15
(g19
S'B\x00\x00\x00'
p398
tp399
Rp400
ag15
(g19
S'V\x00\x00\x00'
p401
tp402
Rp403
assI5
(dp404
I1
(lp405
g15
(g19
S'R\x00\x00\x00'
p406
tp407
Rp408
ag15
(g19
S'K\x00\x00\x00'
p409
tp410
Rp411
ag15
(g19
S'E\x00\x00\x00'
p412
tp413
Rp414
ag15
(g19
S'J\x00\x00\x00'
p415
tp416
Rp417
ag15
(g19
S'P\x00\x00\x00'
p418
tp419
Rp420
ag15
(g19
S'R\x00\x00\x00'
p421
tp422
Rp423
ag15
(g19
S'H\x00\x00\x00'
p424
tp425
Rp426
ag15
(g19
S'>\x00\x00\x00'
p427
tp428
Rp429
ag15
(g19
S'@\x00\x00\x00'
p430
tp431
Rp432
asI10
(lp433
g15
(g19
S'P\x00\x00\x00'
p434
tp435
Rp436
ag15
(g19
S'G\x00\x00\x00'
p437
tp438
Rp439
ag15
(g19
S'J\x00\x00\x00'
p440
tp441
Rp442
ag15
(g19
S'D\x00\x00\x00'
p443
tp444
Rp445
ag15
(g19
S'C\x00\x00\x00'
p446
tp447
Rp448
ag15
(g19
S'C\x00\x00\x00'
p449
tp450
Rp451
ag15
(g19
S'6\x00\x00\x00'
p452
tp453
Rp454
ag15
(g19
S'S\x00\x00\x00'
p455
tp456
Rp457
ag15
(g19
S'E\x00\x00\x00'
p458
tp459
Rp460
asI20
(lp461
g15
(g19
S'H\x00\x00\x00'
p462
tp463
Rp464
ag15
(g19
S'P\x00\x00\x00'
p465
tp466
Rp467
ag15
(g19
S'<\x00\x00\x00'
p468
tp469
Rp470
ag15
(g19
S'C\x00\x00\x00'
p471
tp472
Rp473
ag15
(g19
S'B\x00\x00\x00'
p474
tp475
Rp476
ag15
(g19
S'=\x00\x00\x00'
p477
tp478
Rp479
ag15
(g19
S'E\x00\x00\x00'
p480
tp481
Rp482
ag15
(g19
S':\x00\x00\x00'
p483
tp484
Rp485
asI5
(lp486
g15
(g19
S'L\x00\x00\x00'
p487
tp488
Rp489
ag15
(g19
S'N\x00\x00\x00'
p490
tp491
Rp492
ag15
(g19
S'O\x00\x00\x00'
p493
tp494
Rp495
ag15
(g19
S'K\x00\x00\x00'
p496
tp497
Rp498
ag15
(g19
S'?\x00\x00\x00'
p499
tp500
Rp501
ag15
(g19
S'J\x00\x00\x00'
p502
tp503
Rp504
ag15
(g19
S'<\x00\x00\x00'
p505
tp506
Rp507
ag15
(g19
S'P\x00\x00\x00'
p508
tp509
Rp510
ag15
(g19
S'E\x00\x00\x00'
p511
tp512
Rp513
asI30
(lp514
g15
(g19
S'S\x00\x00\x00'
p515
tp516
Rp517
ag15
(g19
S'<\x00\x00\x00'
p518
tp519
Rp520
ag15
(g19
S'M\x00\x00\x00'
p521
tp522
Rp523
ag15
(g19
S'J\x00\x00\x00'
p524
tp525
Rp526
ag15
(g19
S'K\x00\x00\x00'
p527
tp528
Rp529
ag15
(g19
S'>\x00\x00\x00'
p530
tp531
Rp532
ag15
(g19
S'R\x00\x00\x00'
p533
tp534
Rp535
ag15
(g19
S'K\x00\x00\x00'
p536
tp537
Rp538
assI30
(dp539
I1
(lp540
g15
(g19
S'\\\x00\x00\x00'
p541
tp542
Rp543
ag15
(g19
S'_\x00\x00\x00'
p544
tp545
Rp546
ag15
(g19
S'W\x00\x00\x00'
p547
tp548
Rp549
ag15
(g19
S'R\x00\x00\x00'
p550
tp551
Rp552
ag15
(g19
S'Z\x00\x00\x00'
p553
tp554
Rp555
ag15
(g19
S'N\x00\x00\x00'
p556
tp557
Rp558
ag15
(g19
S'^\x00\x00\x00'
p559
tp560
Rp561
ag15
(g19
S'V\x00\x00\x00'
p562
tp563
Rp564
asI10
(lp565
g15
(g19
S'[\x00\x00\x00'
p566
tp567
Rp568
ag15
(g19
S'S\x00\x00\x00'
p569
tp570
Rp571
ag15
(g19
S'X\x00\x00\x00'
p572
tp573
Rp574
ag15
(g19
S'Y\x00\x00\x00'
p575
tp576
Rp577
ag15
(g19
S'[\x00\x00\x00'
p578
tp579
Rp580
ag15
(g19
S'Y\x00\x00\x00'
p581
tp582
Rp583
ag15
(g19
S'M\x00\x00\x00'
p584
tp585
Rp586
asI20
(lp587
g15
(g19
S'Z\x00\x00\x00'
p588
tp589
Rp590
ag15
(g19
S'Y\x00\x00\x00'
p591
tp592
Rp593
ag15
(g19
S'N\x00\x00\x00'
p594
tp595
Rp596
ag15
(g19
S'S\x00\x00\x00'
p597
tp598
Rp599
ag15
(g19
S'I\x00\x00\x00'
p600
tp601
Rp602
ag15
(g19
S'K\x00\x00\x00'
p603
tp604
Rp605
ag15
(g19
S']\x00\x00\x00'
p606
tp607
Rp608
ag15
(g19
S'L\x00\x00\x00'
p609
tp610
Rp611
asI5
(lp612
g15
(g19
S'S\x00\x00\x00'
p613
tp614
Rp615
ag15
(g19
S'_\x00\x00\x00'
p616
tp617
Rp618
ag15
(g19
S'T\x00\x00\x00'
p619
tp620
Rp621
ag15
(g19
S'U\x00\x00\x00'
p622
tp623
Rp624
ag15
(g19
S'Y\x00\x00\x00'
p625
tp626
Rp627
ag15
(g19
S'T\x00\x00\x00'
p628
tp629
Rp630
ag15
(g19
S'P\x00\x00\x00'
p631
tp632
Rp633
ag15
(g19
S'S\x00\x00\x00'
p634
tp635
Rp636
asI30
(lp637
g15
(g19
S'T\x00\x00\x00'
p638
tp639
Rp640
ag15
(g19
S'\\\x00\x00\x00'
p641
tp642
Rp643
ag15
(g19
S'X\x00\x00\x00'
p644
tp645
Rp646
ag15
(g19
S'V\x00\x00\x00'
p647
tp648
Rp649
ag15
(g19
S'U\x00\x00\x00'
p650
tp651
Rp652
ag15
(g19
S'H\x00\x00\x00'
p653
tp654
Rp655
ag15
(g19
S'Z\x00\x00\x00'
p656
tp657
Rp658
assssS'nl_p'
p659
(dp660
g3
(dp661
I1
(dp662
I1
(lp663
sI10
(lp664
sI20
(lp665
sI5
(lp666
sI30
(lp667
ssI10
(dp668
I1
(lp669
sI10
(lp670
sI20
(lp671
sI5
(lp672
sI30
(lp673
ssI20
(dp674
I1
(lp675
sI10
(lp676
sI20
(lp677
sI5
(lp678
sI30
(lp679
ssI5
(dp680
I1
(lp681
sI10
(lp682
sI20
(lp683
sI5
(lp684
sI30
(lp685
ssI30
(dp686
I1
(lp687
sI10
(lp688
sI20
(lp689
sI5
(lp690
sI30
(lp691
ssssS'nl_ti'
p692
(dp693
g3
(dp694
I1
(dp695
I1
(lp696
I163
aI710
aI311
aI165
aI171
aI185
aI990
aI379
aI301
asI10
(lp697
I210
aI146
aI175
aI287
aI298
aI149
aI378
aI203
aI547
asI20
(lp698
I221
aI255
aI447
aI364
aI379
aI279
aI816
aI861
aI341
asI5
(lp699
I187
aI122
aI291
aI328
aI206
aI303
aI355
aI195
aI136
asI30
(lp700
I700
aI543
aI348
aI373
aI580
aI614
aI702
assI10
(dp701
I1
(lp702
I280
aI240
aI301
aI366
aI484
aI371
aI349
aI210
aI232
asI10
(lp703
I157
aI296
aI221
aI234
aI218
aI219
aI233
aI336
aI220
asI20
(lp704
I262
aI515
aI370
aI313
aI299
aI277
aI983
aI320
aI612
asI5
(lp705
I161
aI268
aI343
aI179
aI260
aI241
aI608
aI206
asI30
(lp706
I510
aI637
aI680
aI631
aI873
aI527
assI20
(dp707
I1
(lp708
I154
aI402
aI337
aI246
aI218
aI381
aI347
aI262
asI10
(lp709
I207
aI366
aI215
aI193
aI270
aI579
aI356
aI303
asI20
(lp710
I532
aI532
aI362
aI624
aI247
aI664
aI416
asI5
(lp711
I451
aI232
aI463
aI348
aI226
aI342
aI393
aI418
asI30
(lp712
I490
aI696
aI740
aI806
aI474
aI859
aI705
assI5
(dp713
I1
(lp714
I274
aI129
aI124
aI465
aI247
aI141
aI248
aI284
aI328
asI10
(lp715
I143
aI166
aI225
aI223
aI280
aI233
aI530
aI196
aI217
asI20
(lp716
I316
aI494
aI410
aI644
aI176
aI715
aI328
aI940
asI5
(lp717
I256
aI157
aI181
aI258
aI290
aI118
aI268
aI290
aI331
asI30
(lp718
I468
aI714
aI492
aI415
aI538
aI704
aI467
aI606
assI30
(dp719
I1
(lp720
I245
aI365
aI271
aI396
aI246
aI472
aI185
aI264
asI10
(lp721
I124
aI292
aI212
aI435
aI223
aI336
aI500
asI20
(lp722
I246
aI388
aI480
aI594
aI344
aI717
aI226
aI801
asI5
(lp723
I333
aI206
aI297
aI265
aI288
aI472
aI492
aI639
asI30
(lp724
I745
aI553
aI302
aI374
aI408
aI969
aI614
assss.(dp0
S'random_t35_d20_r6_172642100.mat'
p1
I1
sS'random_t35_d10_r5_175156390.mat'
p2
I1
sS'random_t35_d30_r5_175213862.mat'
p3
I1
sS'random_t35_d10_r8_172632284.mat'
p4
I1
sS'random_t35_d20_r10_175458997.mat'
p5
I1
sS'random_t35_d1_r3_172637874.mat'
p6
I1
sS'random_t35_d5_r9_172726530.mat'
p7
I1
sS'random_t35_d10_r9_172688582.mat'
p8
I0
sS'random_t35_d10_r4_172676052.mat'
p9
I1
sS'random_t35_d1_r6_172658980.mat'
p10
I1
sS'random_t35_d5_r2_172708988.mat'
p11
I1
sS'random_t35_d5_r6_172732600.mat'
p12
I1
sS'random_t35_d30_r7_175205366.mat'
p13
I1
sS'random_t35_d20_r8_172700904.mat'
p14
I1
sS'random_t35_d1_r9_172680086.mat'
p15
I1
sS'random_t35_d20_r10_175486173.mat'
p16
I1
sS'random_t35_d1_r9_172652910.mat'
p17
I1
sS'random_t35_d10_r4_175181020.mat'
p18
I0
sS'random_t35_d1_r3_170121690.mat'
p19
I1
sS'random_t35_d30_r8_175207912.mat'
p20
I1
sS'random_t35_d5_r10_170523105.mat'
p21
I1
sS'random_t35_d5_r6_172719012.mat'
p22
I1
sS'random_t35_d1_r4_172667556.mat'
p23
I1
sS'random_t35_d30_r3_175208770.mat'
p24
I1
sS'random_t35_d1_r8_172677580.mat'
p25
I1
sS'random_t35_d30_r6_172656928.mat'
p26
I1
sS'random_t35_d30_r7_175218954.mat'
p27
I1
sS'random_t35_d5_r9_170249030.mat'
p28
I1
sS'random_t35_d5_r3_172725082.mat'
p29
I1
sS'random_t35_d10_r7_172629778.mat'
p30
I1
sS'random_t35_d1_r6_170182880.mat'
p31
I1
sS'random_t35_d10_r6_172627272.mat'
p32
I1
sS'random_t35_d5_r7_170244098.mat'
p33
I1
sS'random_t35_d10_r7_175161482.mat'
p34
I1
sS'random_t35_d5_r6_172705424.mat'
p35
I1
sS'random_t35_d20_r3_172634582.mat'
p36
I1
sS'random_t35_d5_r4_172700412.mat'
p37
I1
sS'random_t35_d30_r6_172710720.mat'
p38
I1
sS'random_t35_d30_r4_175211316.mat'
p39
I1
sS'random_t35_d5_r8_172724024.mat'
p40
I1
sS'random_t35_d20_r8_175179176.mat'
p41
I1
sS'random_t35_d10_r3_172673546.mat'
p42
I1
sS'random_t35_d10_r9_175166574.mat'
p43
I1
sS'random_t35_d1_r7_172647898.mat'
p44
I1
sS'random_t35_d10_r8_175177616.mat'
p45
I1
sS'random_t35_d1_r8_172663992.mat'
p46
I1
sS'random_t35_d30_r7_172713226.mat'
p47
I1
sS'random_t35_d30_r7_175191778.mat'
p48
I0
sS'random_t35_d1_r5_172642886.mat'
p49
I1
sS'random_t35_d20_r4_175168992.mat'
p50
I1
sS'random_t35_d20_r5_175198714.mat'
p51
I1
sS'random_t35_d1_r5_170180414.mat'
p52
I1
sS'random_t35_d10_r6_172681064.mat'
p53
I1
sS'random_t35_d20_r7_175190218.mat'
p54
I0
sS'random_t35_d10_r6_175186112.mat'
p55
I1
sS'random_t35_d1_r5_170126622.mat'
p56
I1
sS'random_t35_d10_r2_172617248.mat'
p57
I1
sS'random_t35_d1_r9_170190278.mat'
p58
I1
sS'random_t35_d30_r6_175202820.mat'
p59
I1
sS'random_t35_d5_r4_170236700.mat'
p60
I1
sS'random_t35_d10_r2_175162340.mat'
p61
I1
sS'random_t35_d5_r4_172727588.mat'
p62
I0
sS'random_t35_d20_r6_175187672.mat'
p63
I1
sS'random_t35_d20_r7_172698398.mat'
p64
I1
sS'random_t35_d10_r4_172622260.mat'
p65
I1
sS'random_t35_d1_r4_172653968.mat'
p66
I1
sS'random_t35_d5_r7_170190306.mat'
p67
I1
sS'random_t35_d1_r5_172656474.mat'
p68
I1
sS'random_t35_d5_r8_172737612.mat'
p69
I1
sS'random_t35_d20_r7_175176630.mat'
p70
I1
sS'random_t35_d1_r5_172670062.mat'
p71
I1
sS'random_t35_d20_r9_175181722.mat'
p72
I1
sS'random_t35_d5_r9_172740118.mat'
p73
I1
sS'random_t35_d20_r5_175185126.mat'
p74
I1
sS'random_t35_d5_r8_170192772.mat'
p75
I1
sS'random_t35_d20_r9_172649618.mat'
p76
I1
sS'random_t35_d30_r5_175186686.mat'
p77
I1
sS'random_t35_d30_r8_175221500.mat'
p78
I0
sS'random_t35_d10_r9_175180162.mat'
p79
I1
sS'random_t35_d10_r3_172619754.mat'
p80
I1
sS'random_t35_d1_r9_170136486.mat'
p81
I1
sS'random_t35_d20_r4_172690880.mat'
p82
I1
sS'random_t35_d20_r4_175196168.mat'
p83
I1
sS'random_t35_d10_r3_175164886.mat'
p84
I1
sS'random_t35_d20_r5_172693386.mat'
p85
I1
sS'random_t35_d20_r8_172647112.mat'
p86
I1
sS'random_t35_d30_r4_175184140.mat'
p87
I1
sS'random_t35_d20_r4_175182580.mat'
p88
I1
sS'random_t35_d30_r3_175181594.mat'
p89
I1
sS'random_t35_d10_r10_175471025.mat'
p90
I1
sS'random_t35_d1_r2_170173016.mat'
p91
I1
sS'random_t35_d10_r2_175148752.mat'
p92
I1
sS'random_t35_d10_r7_175175070.mat'
p93
I1
sS'random_t35_d10_r10_172964257.mat'
p94
I1
sS'random_t35_d1_r10_170410561.mat'
p95
I1
sS'random_t35_d1_r6_170129088.mat'
p96
I1
sS'random_t35_d20_r9_172703410.mat'
p97
I1
sS'random_t35_d20_r3_175193622.mat'
p98
I1
sS'random_t35_d5_r2_170231768.mat'
p99
I1
sS'random_t35_d20_r5_172639594.mat'
p100
I1
sS'random_t35_d20_r9_175195310.mat'
p101
I1
sS'random_t35_d30_r9_175224046.mat'
p102
I1
sS'random_t35_d30_r8_175194324.mat'
p103
I1
sS'random_t35_d30_r9_172664446.mat'
p104
I1
sS'random_t35_d5_r3_172697906.mat'
p105
I1
sS'random_t35_d20_r9_175208898.mat'
p106
I0
sS'random_t35_d1_r7_172661486.mat'
p107
I1
sS'random_t35_d20_r5_175171538.mat'
p108
I1
sS'random_t35_d10_r5_172624766.mat'
p109
I1
sS'random_t35_d30_r9_175196870.mat'
p110
I1
sS'random_t35_d20_r8_175206352.mat'
p111
I1
sS'random_t35_d5_r2_172695400.mat'
p112
I1
sS'random_t35_d30_r10_175474145.mat'
p113
I1
sS'random_t35_d5_r7_172707930.mat'
p114
I1
sS'random_t35_d5_r5_172702918.mat'
p115
I1
sS'random_t35_d5_r4_172714000.mat'
p116
I0
sS'random_t35_d20_r7_175203806.mat'
p117
I1
sS'random_t35_d10_r9_175193750.mat'
p118
I0
sS'random_t35_d10_r10_175443849.mat'
p119
I1
sS'random_t35_d5_r7_172735106.mat'
p120
I1
sS'random_t35_d5_r10_170469313.mat'
p121
I1
sS'random_t35_d1_r2_172648956.mat'
p122
I1
sS'random_t35_d10_r8_175191204.mat'
p123
I1
sS'random_t35_d1_r3_172665050.mat'
p124
I1
sS'random_t35_d5_r10_173002205.mat'
p125
I1
sS'random_t35_d30_r9_172718238.mat'
p126
I1
sS'random_t35_d30_r9_175210458.mat'
p127
I1
sS'random_t35_d20_r3_175166446.mat'
p128
I1
sS'random_t35_d20_r10_172979085.mat'
p129
I1
sS'random_t35_d1_r4_172640380.mat'
p130
I1
sS'random_t35_d20_r8_175192764.mat'
p131
I1
sS'random_t35_d5_r10_173015793.mat'
p132
I1
sS'random_t35_d20_r4_172637088.mat'
p133
I1
sS'random_t35_d30_r10_175487733.mat'
p134
I1
sS'random_t35_d5_r9_170195238.mat'
p135
I1
sS'random_t35_d1_r8_172650404.mat'
p136
I1
sS'random_t35_d10_r3_175178474.mat'
p137
I1
sS'random_t35_d5_r8_170246564.mat'
p138
I1
sS'random_t35_d30_r6_175216408.mat'
p139
I1
sS'random_t35_d5_r5_172730094.mat'
p140
I1
sS'random_t35_d1_r8_170187812.mat'
p141
I1
sS'random_t35_d10_r6_175158936.mat'
p142
I1
sS'random_t35_d10_r7_172683570.mat'
p143
I1
sS'random_t35_d5_r2_170177976.mat'
p144
I1
sS'random_t35_d30_r4_175197728.mat'
p145
I1
sS'random_t35_d1_r2_172635368.mat'
p146
I1
sS'random_t35_d30_r10_172993913.mat'
p147
I1
sS'random_t35_d30_r7_172659434.mat'
p148
I1
sS'random_t35_d5_r5_170239166.mat'
p149
I1
sS'random_t35_d1_r2_170119224.mat'
p150
I1
sS'random_t35_d30_r8_172715732.mat'
p151
I1
sS'random_t35_d5_r4_170182908.mat'
p152
I1
sS'random_t35_d20_r10_175472585.mat'
p153
I1
sS'random_t35_d10_r10_172910465.mat'
p154
I1
sS'random_t35_d30_r10_172940121.mat'
p155
I1
sS'random_t35_d10_r6_175172524.mat'
p156
I1
sS'random_t35_d30_r3_172649410.mat'
p157
I1
sS'random_t35_d1_r2_172662544.mat'
p158
I1
sS'random_t35_d10_r8_175164028.mat'
p159
I1
sS'random_t35_d5_r3_170180442.mat'
p160
I1
sS'random_t35_d1_r10_172955761.mat'
p161
I1
sS'random_t35_d5_r6_170241632.mat'
p162
I1
sS'random_t35_d10_r2_172671040.mat'
p163
I1
sS'random_t35_d30_r5_172708214.mat'
p164
I1
sS'random_t35_d1_r10_170464353.mat'
p165
I1
sS'random_t35_d1_r8_170134020.mat'
p166
I1
sS'random_t35_d20_r10_172925293.mat'
p167
I1
sS'random_t35_d1_r6_172672568.mat'
p168
I0
sS'random_t35_d30_r5_175200274.mat'
p169
I1
sS'random_t35_d10_r4_175153844.mat'
p170
I1
sS'random_t35_d5_r3_170234234.mat'
p171
I1
sS'random_t35_d20_r3_175180034.mat'
p172
I1
sS'random_t35_d10_r3_175151298.mat'
p173
I1
sS'random_t35_d30_r10_175501321.mat'
p174
I1
sS'random_t35_d30_r3_172703202.mat'
p175
I1
sS'random_t35_d30_r3_175195182.mat'
p176
I1
sS'random_t35_d30_r4_172705708.mat'
p177
I1
sS'random_t35_d10_r7_175188658.mat'
p178
I1
sS'random_t35_d1_r3_170175482.mat'
p179
I1
sS'random_t35_d5_r10_172988617.mat'
p180
I1
sS'random_t35_d10_r5_175169978.mat'
p181
I1
sS'random_t35_d5_r8_172710436.mat'
p182
I1
sS'random_t35_d1_r4_170124156.mat'
p183
I1
sS'random_t35_d1_r7_170185346.mat'
p184
I1
sS'random_t35_d10_r10_175457437.mat'
p185
I1
sS'random_t35_d1_r3_172651462.mat'
p186
I1
sS'random_t35_d10_r5_175183566.mat'
p187
I1
sS'random_t35_d1_r6_172645392.mat'
p188
I1
sS'random_t35_d5_r9_172712942.mat'
p189
I1
sS'random_t35_d10_r5_172678558.mat'
p190
I1
sS'random_t35_d20_r6_175201260.mat'
p191
I1
sS'random_t35_d1_r7_170131554.mat'
p192
I1
sS'random_t35_d5_r7_172721518.mat'
p193
I1
sS'random_t35_d30_r6_175189232.mat'
p194
I1
sS'random_t35_d5_r2_172722576.mat'
p195
I1
sS'random_t35_d1_r7_172675074.mat'
p196
I0
sS'random_t35_d20_r6_172695892.mat'
p197
I1
sS'random_t35_d1_r10_172928585.mat'
p198
I1
sS'random_t35_d1_r4_170177948.mat'
p199
I1
sS'random_t35_d30_r8_172661940.mat'
p200
I1
sS'random_t35_d5_r3_172711494.mat'
p201
I1
sS'random_t35_d30_r4_172651916.mat'
p202
I1
sS'random_t35_d5_r5_170185374.mat'
p203
I1
sS'random_t35_d30_r5_172654422.mat'
p204
I1
sS'random_t35_d5_r6_170187840.mat'
p205
I1
sS'random_t35_d10_r4_175167432.mat'
p206
I1
sS'random_t35_d10_r8_172686076.mat'
p207
I1
sS'random_t35_d5_r5_172716506.mat'
p208
I1
sS'random_t35_d1_r10_172942173.mat'
p209
I1
sS'random_t35_d20_r6_175174084.mat'
p210
I1
sS'random_t35_d10_r9_172634790.mat'
p211
I1
sS'random_t35_d20_r7_172644606.mat'
p212
I1
sS'random_t35_d1_r9_172666498.mat'
p213
I1
sS'random_t35_d20_r3_172688374.mat'
p214
I1
s.