(dp0
S'delays'
p1
c__builtin__
set
p2
((lp3
tp4
Rp5
sS'tsteps'
p6
g2
((lp7
tp8
Rp9
sS'clses'
p10
g2
((lp11
tp12
Rp13
s.(dp0
S'nrej'
p1
(dp2
sS'l_p'
p3
(dp4
sS'nl_p'
p5
(dp6
sS'nl_ti'
p7
(dp8
s.(dp0
S'random_t35_d5_r10_168986101.mat'
p1
I00
sS'random_t35_d10_r7_173254538.mat'
p2
I00
sS'random_t35_d1_r10_168927989.mat'
p3
I00
sS'random_t35_d20_r8_173273156.mat'
p4
I00
sS'random_t35_d20_r3_173260576.mat'
p5
I00
sS'random_t35_d5_r8_170815216.mat'
p6
I00
sS'random_t35_d30_r7_173284354.mat'
p7
I00
sS'random_t35_d1_r6_170751192.mat'
p8
I00
sS'random_t35_d20_r7_173269446.mat'
p9
I00
sS'random_t35_d1_r4_170745046.mat'
p10
I00
sS'random_t35_d5_r5_168356490.mat'
p11
I00
sS'random_t35_d20_r8_170809153.mat'
p12
I00
sS'random_t35_d1_r4_168296097.mat'
p13
I00
sS'random_t35_d1_r3_168640038.mat'
p14
I00
sS'random_t35_d20_r6_171152548.mat'
p15
I00
sS'random_t35_d30_r7_171169702.mat'
p16
I00
sS'random_t35_d10_r7_170792044.mat'
p17
I00
sS'random_t35_d1_r2_170741288.mat'
p18
I00
sS'random_t35_d20_r8_171157520.mat'
p19
I00
sS'random_t35_d10_r9_173259570.mat'
p20
I00
sS'random_t35_d30_r7_170821300.mat'
p21
I00
sS'random_t35_d10_r10_171420213.mat'
p22
I00
sS'random_t35_d10_r7_171140366.mat'
p23
I00
sS'random_t35_d10_r2_171127936.mat'
p24
I00
sS'random_t35_d1_r10_171033095.mat'
p25
I00
sS'random_t35_d1_r8_170754950.mat'
p26
I00
sS'random_t35_d10_r8_173258248.mat'
p27
I00
sS'random_t35_d30_r10_171100937.mat'
p28
I00
sS'random_t35_d5_r10_168639329.mat'
p29
I00
sS'random_t35_d20_r3_171145090.mat'
p30
I00
sS'random_t35_d1_r9_170758620.mat'
p31
I00
sS'random_t35_d10_r3_173244474.mat'
p32
I00
sS'random_t35_d1_r2_168637592.mat'
p33
I00
sS'random_t35_d30_r6_170818819.mat'
p34
I00
sS'random_t35_d10_r8_171142852.mat'
p35
I00
sS'random_t35_d1_r3_170743764.mat'
p36
I00
sS'random_t35_d1_r5_170747522.mat'
p37
I00
sS'random_t35_d1_r6_168300979.mat'
p38
I00
sS'random_t35_d10_r2_173243152.mat'
p39
I00
sS'random_t35_d20_r3_170796748.mat'
p40
I00
sS'random_t35_d20_r5_173264414.mat'
p41
I00
sS'random_t35_d10_r4_171132908.mat'
p42
I00
sS'random_t35_d30_r4_173276806.mat'
p43
I00
sS'random_t35_d1_r10_170681621.mat'
p44
I00
sS'random_t35_d5_r5_170806594.mat'
p45
I00
sS'random_t35_d30_r6_173283032.mat'
p46
I00
sS'random_t35_d1_r10_170682795.mat'
p47
I00
sS'random_t35_d20_r9_170811634.mat'
p48
I00
sS'random_t35_d30_r3_173274290.mat'
p49
I00
sS'random_t35_d20_r4_170799229.mat'
p50
I00
sS'random_t35_d1_r8_168305861.mat'
p51
I00
sS'random_t35_d10_r2_173241958.mat'
p52
I00
sS'random_t35_d20_r7_171155034.mat'
p53
I00
sS'random_t35_d5_r7_170812740.mat'
p54
I00
sS'random_t35_d30_r8_173288064.mat'
p55
I00
sS'random_t35_d5_r3_168698150.mat'
p56
I00
sS'random_t35_d20_r5_171150062.mat'
p57
I00
sS'random_t35_d30_r9_171174674.mat'
p58
I00
sS'random_t35_d5_r4_170804118.mat'
p59
I00
sS'random_t35_d1_r7_170752474.mat'
p60
I00
sS'random_t35_d10_r6_173252022.mat'
p61
I00
sS'random_t35_d10_r3_170782120.mat'
p62
I00
sS'random_t35_d1_r9_168308302.mat'
p63
I00
sS'random_t35_d1_r4_170746240.mat'
p64
I00
sS'random_t35_d5_r9_170816498.mat'
p65
I00
sS'random_t35_d30_r9_173289386.mat'
p66
I00
sS'random_t35_d1_r6_170749998.mat'
p67
I00
sS'random_t35_d5_r9_168712826.mat'
p68
I00
sS'random_t35_d30_r6_173281838.mat'
p69
I00
sS'random_t35_d10_r10_171071681.mat'
p70
I00
sS'random_t35_d10_r2_170779639.mat'
p71
I00
sS'random_t35_d20_r10_171434881.mat'
p72
I00
sS'random_t35_d5_r3_168351608.mat'
p73
I00
sS'random_t35_d5_r3_170801642.mat'
p74
I00
sS'random_t35_d20_r6_173268124.mat'
p75
I00
sS'random_t35_d5_r10_171090973.mat'
p76
I00
sS'random_t35_d1_r5_168298538.mat'
p77
I00
sS'random_t35_d1_r10_171031901.mat'
p78
I00
sS'random_t35_d20_r6_173266930.mat'
p79
I00
sS'random_t35_d1_r10_168581377.mat'
p80
I00
sS'random_t35_d20_r6_170804191.mat'
p81
I00
sS'random_t35_d5_r2_170800360.mat'
p82
I00
sS'random_t35_d30_r5_170816338.mat'
p83
I00
sS'random_t35_d1_r2_168291215.mat'
p84
I00
sS'random_t35_d30_r8_170823781.mat'
p85
I00
sS'random_t35_d20_r10_171086309.mat'
p86
I00
sS'random_t35_d30_r5_173279322.mat'
p87
I00
sS'random_t35_d5_r8_168363813.mat'
p88
I00
sS'random_t35_d20_r8_173271962.mat'
p89
I00
sS'random_t35_d1_r8_170756144.mat'
p90
I00
sS'random_t35_d10_r8_170794525.mat'
p91
I00
sS'random_t35_d10_r4_170784601.mat'
p92
I00
sS'random_t35_d30_r9_170826262.mat'
p93
I00
sS'random_t35_d10_r8_173257054.mat'
p94
I00
sS'random_t35_d30_r5_171164730.mat'
p95
I00
sS'random_t35_d30_r6_171167216.mat'
p96
I00
sS'random_t35_d20_r7_173270640.mat'
p97
I00
sS'random_t35_d5_r2_168695704.mat'
p98
I00
sS'random_t35_d1_r7_168649822.mat'
p99
I00
sS'random_t35_d5_r2_170799166.mat'
p100
I00
sS'random_t35_d20_r4_171147576.mat'
p101
I00
sS'random_t35_d20_r4_173261898.mat'
p102
I00
sS'random_t35_d5_r8_170814022.mat'
p103
I00
sS'random_t35_d20_r2_173256866.mat'
p104
I00
sS'random_t35_d30_r10_173565461.mat'
p105
I00
sS'random_t35_d1_r3_168293656.mat'
p106
I00
sS'random_t35_d30_r10_171449549.mat'
p107
I00
sS'random_t35_d1_r8_168652268.mat'
p108
I00
sS'random_t35_d20_r7_170806672.mat'
p109
I00
sS'random_t35_d20_r9_173275672.mat'
p110
I00
sS'random_t35_d10_r4_173248184.mat'
p111
I00
sS'random_t35_d10_r5_171135394.mat'
p112
I00
sS'random_t35_d5_r5_170807788.mat'
p113
I00
sS'random_t35_d30_r4_173278000.mat'
p114
I00
sS'random_t35_d5_r7_168361372.mat'
p115
I00
sS'random_t35_d30_r4_171162244.mat'
p116
I00
sS'random_t35_d10_r10_173535645.mat'
p117
I00
sS'random_t35_d5_r4_168354049.mat'
p118
I00
sS'random_t35_d5_r4_170805312.mat'
p119
I00
sS'random_t35_d1_r9_170757426.mat'
p120
I00
sS'random_t35_d5_r7_170811546.mat'
p121
I00
sS'random_t35_d30_r8_173286870.mat'
p122
I00
sS'random_t35_d10_r3_173245668.mat'
p123
I00
sS'random_t35_d30_r9_173290580.mat'
p124
I00
sS'random_t35_d1_r4_168642484.mat'
p125
I00
sS'random_t35_d1_r9_168654714.mat'
p126
I00
sS'random_t35_d5_r8_168710380.mat'
p127
I00
sS'random_t35_d20_r10_173551747.mat'
p128
I00
sS'random_t35_d10_r6_171137880.mat'
p129
I00
sS'random_t35_d1_r2_170740094.mat'
p130
I00
sS'random_t35_d20_r2_173258060.mat'
p131
I00
sS'random_t35_d10_r5_173249506.mat'
p132
I00
sS'random_t35_d1_r3_170742570.mat'
p133
I00
sS'random_t35_d10_r6_170789563.mat'
p134
I00
sS'random_t35_d30_r4_170813857.mat'
p135
I00
sS'random_t35_d30_r3_171159758.mat'
p136
I00
sS'random_t35_d1_r5_170748716.mat'
p137
I00
sS'random_t35_d10_r4_173246990.mat'
p138
I00
sS'random_t35_d20_r4_173263092.mat'
p139
I00
sS'random_t35_d5_r6_168705488.mat'
p140
I00
sS'random_t35_d10_r10_173536839.mat'
p141
I00
sS'random_t35_d30_r3_170811376.mat'
p142
I00
sS'random_t35_d5_r7_168707934.mat'
p143
I00
sS'random_t35_d30_r8_171172188.mat'
p144
I00
sS'random_t35_d1_r7_168303420.mat'
p145
I00
sS'random_t35_d10_r9_170797006.mat'
p146
I00
sS'random_t35_d1_r6_168647376.mat'
p147
I00
sS'random_t35_d30_r3_173275484.mat'
p148
I00
sS'random_t35_d30_r7_173285548.mat'
p149
I00
sS'random_t35_d5_r6_170809070.mat'
p150
I00
sS'random_t35_d10_r9_171145338.mat'
p151
I00
sS'random_t35_d20_r5_173265608.mat'
p152
I00
sS'random_t35_d5_r3_170802836.mat'
p153
I00
sS'random_t35_d10_r5_170787082.mat'
p154
I00
sS'random_t35_d30_r10_173566655.mat'
p155
I00
sS'random_t35_d10_r9_173260764.mat'
p156
I00
sS'random_t35_d5_r6_170810264.mat'
p157
I00
sS'random_t35_d1_r10_168579169.mat'
p158
I00
sS'random_t35_d20_r9_173274478.mat'
p159
I00
sS'random_t35_d5_r4_168700596.mat'
p160
I00
sS'random_t35_d1_r7_170753668.mat'
p161
I00
sS'random_t35_d30_r5_173280516.mat'
p162
I00
sS'random_t35_d1_r5_168644930.mat'
p163
I00
sS'random_t35_d5_r5_168703042.mat'
p164
I00
sS'random_t35_d10_r3_171130422.mat'
p165
I00
sS'random_t35_d10_r7_173255732.mat'
p166
I00
sS'random_t35_d5_r10_171092167.mat'
p167
I00
sS'random_t35_d20_r10_173550553.mat'
p168
I00
sS'random_t35_d20_r3_173259382.mat'
p169
I00
sS'random_t35_d5_r9_168366254.mat'
p170
I00
sS'random_t35_d5_r2_168349167.mat'
p171
I00
sS'random_t35_d20_r9_171160006.mat'
p172
I00
sS'random_t35_d20_r5_170801710.mat'
p173
I00
sS'random_t35_d10_r6_173253216.mat'
p174
I00
sS'random_t35_d5_r9_170817692.mat'
p175
I00
sS'random_t35_d10_r5_173250700.mat'
p176
I00
sS'random_t35_d5_r6_168358931.mat'
p177
I00
s.