(dp0
S'cc'
p1
c__builtin__
set
p2
((lp3
I1
aI10
aI20
aI5
aI30
atp4
Rp5
sS'ih'
p6
g2
((lp7
I1
atp8
Rp9
sS'clses'
p10
g2
((lp11
S'ts=35,tc=0.50,T=0.10'
p12
atp13
Rp14
s.(dp0
S'nrej'
p1
(dp2
S'ts=35,tc=0.50,T=0.10'
p3
(dp4
I1
(dp5
I1
I3
ssI10
(dp6
I1
I3
ssI20
(dp7
I1
I2
ssI5
(dp8
I1
I3
ssI30
(dp9
I1
I3
ssssS'l_p'
p10
(dp11
g3
(dp12
I1
(dp13
I1
(lp14
cnumpy.core.multiarray
scalar
p15
(cnumpy
dtype
p16
(S'i4'
p17
I0
I1
tp18
Rp19
(I3
S'<'
p20
NNNI-1
I-1
I0
tp21
bS'K\x00\x00\x00'
p22
tp23
Rp24
ag15
(g19
S'T\x00\x00\x00'
p25
tp26
Rp27
ag15
(g19
S'X\x00\x00\x00'
p28
tp29
Rp30
ag15
(g19
S'W\x00\x00\x00'
p31
tp32
Rp33
ag15
(g19
S'E\x00\x00\x00'
p34
tp35
Rp36
ag15
(g19
S'c\x00\x00\x00'
p37
tp38
Rp39
ag15
(g19
S'_\x00\x00\x00'
p40
tp41
Rp42
ag15
(g19
S'J\x00\x00\x00'
p43
tp44
Rp45
ag15
(g19
S'K\x00\x00\x00'
p46
tp47
Rp48
ag15
(g19
S'd\x00\x00\x00'
p49
tp50
Rp51
ag15
(g19
S'Z\x00\x00\x00'
p52
tp53
Rp54
ag15
(g19
S'J\x00\x00\x00'
p55
tp56
Rp57
ag15
(g19
S'c\x00\x00\x00'
p58
tp59
Rp60
ag15
(g19
S'W\x00\x00\x00'
p61
tp62
Rp63
ag15
(g19
S'O\x00\x00\x00'
p64
tp65
Rp66
ag15
(g19
S'Q\x00\x00\x00'
p67
tp68
Rp69
ag15
(g19
S'c\x00\x00\x00'
p70
tp71
Rp72
ag15
(g19
S'T\x00\x00\x00'
p73
tp74
Rp75
ag15
(g19
S'F\x00\x00\x00'
p76
tp77
Rp78
ag15
(g19
S'N\x00\x00\x00'
p79
tp80
Rp81
ag15
(g19
S'd\x00\x00\x00'
p82
tp83
Rp84
ag15
(g19
S'W\x00\x00\x00'
p85
tp86
Rp87
ag15
(g19
S'U\x00\x00\x00'
p88
tp89
Rp90
ag15
(g19
S'd\x00\x00\x00'
p91
tp92
Rp93
ag15
(g19
S'Z\x00\x00\x00'
p94
tp95
Rp96
ag15
(g19
S'P\x00\x00\x00'
p97
tp98
Rp99
ag15
(g19
S'C\x00\x00\x00'
p100
tp101
Rp102
ag15
(g19
S'c\x00\x00\x00'
p103
tp104
Rp105
ag15
(g19
S'T\x00\x00\x00'
p106
tp107
Rp108
ag15
(g19
S'J\x00\x00\x00'
p109
tp110
Rp111
ag15
(g19
S'c\x00\x00\x00'
p112
tp113
Rp114
ag15
(g19
S'Z\x00\x00\x00'
p115
tp116
Rp117
ag15
(g19
S'C\x00\x00\x00'
p118
tp119
Rp120
ag15
(g19
S'Q\x00\x00\x00'
p121
tp122
Rp123
ag15
(g19
S'\\\x00\x00\x00'
p124
tp125
Rp126
ag15
(g19
S']\x00\x00\x00'
p127
tp128
Rp129
assI10
(dp130
I1
(lp131
g15
(g19
S'U\x00\x00\x00'
p132
tp133
Rp134
ag15
(g19
S'd\x00\x00\x00'
p135
tp136
Rp137
ag15
(g19
S'c\x00\x00\x00'
p138
tp139
Rp140
ag15
(g19
S'T\x00\x00\x00'
p141
tp142
Rp143
ag15
(g19
S'd\x00\x00\x00'
p144
tp145
Rp146
ag15
(g19
S'^\x00\x00\x00'
p147
tp148
Rp149
ag15
(g19
S'P\x00\x00\x00'
p150
tp151
Rp152
ag15
(g19
S'Q\x00\x00\x00'
p153
tp154
Rp155
ag15
(g19
S'd\x00\x00\x00'
p156
tp157
Rp158
ag15
(g19
S'_\x00\x00\x00'
p159
tp160
Rp161
ag15
(g19
S'U\x00\x00\x00'
p162
tp163
Rp164
ag15
(g19
S'J\x00\x00\x00'
p165
tp166
Rp167
ag15
(g19
S'd\x00\x00\x00'
p168
tp169
Rp170
ag15
(g19
S'[\x00\x00\x00'
p171
tp172
Rp173
ag15
(g19
S'P\x00\x00\x00'
p174
tp175
Rp176
ag15
(g19
S'U\x00\x00\x00'
p177
tp178
Rp179
ag15
(g19
S'c\x00\x00\x00'
p180
tp181
Rp182
ag15
(g19
S'^\x00\x00\x00'
p183
tp184
Rp185
ag15
(g19
S'I\x00\x00\x00'
p186
tp187
Rp188
ag15
(g19
S'P\x00\x00\x00'
p189
tp190
Rp191
ag15
(g19
S'c\x00\x00\x00'
p192
tp193
Rp194
ag15
(g19
S'`\x00\x00\x00'
p195
tp196
Rp197
ag15
(g19
S'E\x00\x00\x00'
p198
tp199
Rp200
ag15
(g19
S'J\x00\x00\x00'
p201
tp202
Rp203
ag15
(g19
S'a\x00\x00\x00'
p204
tp205
Rp206
ag15
(g19
S'Y\x00\x00\x00'
p207
tp208
Rp209
ag15
(g19
S'A\x00\x00\x00'
p210
tp211
Rp212
ag15
(g19
S'L\x00\x00\x00'
p213
tp214
Rp215
ag15
(g19
S'b\x00\x00\x00'
p216
tp217
Rp218
ag15
(g19
S'V\x00\x00\x00'
p219
tp220
Rp221
ag15
(g19
S'K\x00\x00\x00'
p222
tp223
Rp224
ag15
(g19
S'c\x00\x00\x00'
p225
tp226
Rp227
ag15
(g19
S']\x00\x00\x00'
p228
tp229
Rp230
assI20
(dp231
I1
(lp232
g15
(g19
S'\\\x00\x00\x00'
p233
tp234
Rp235
ag15
(g19
S'd\x00\x00\x00'
p236
tp237
Rp238
ag15
(g19
S'b\x00\x00\x00'
p239
tp240
Rp241
ag15
(g19
S'd\x00\x00\x00'
p242
tp243
Rp244
ag15
(g19
S'`\x00\x00\x00'
p245
tp246
Rp247
ag15
(g19
S'P\x00\x00\x00'
p248
tp249
Rp250
ag15
(g19
S'[\x00\x00\x00'
p251
tp252
Rp253
ag15
(g19
S'c\x00\x00\x00'
p254
tp255
Rp256
ag15
(g19
S'^\x00\x00\x00'
p257
tp258
Rp259
ag15
(g19
S'U\x00\x00\x00'
p260
tp261
Rp262
ag15
(g19
S'U\x00\x00\x00'
p263
tp264
Rp265
ag15
(g19
S'd\x00\x00\x00'
p266
tp267
Rp268
ag15
(g19
S'W\x00\x00\x00'
p269
tp270
Rp271
ag15
(g19
S'P\x00\x00\x00'
p272
tp273
Rp274
ag15
(g19
S'[\x00\x00\x00'
p275
tp276
Rp277
ag15
(g19
S'c\x00\x00\x00'
p278
tp279
Rp280
ag15
(g19
S'b\x00\x00\x00'
p281
tp282
Rp283
ag15
(g19
S'I\x00\x00\x00'
p284
tp285
Rp286
ag15
(g19
S'T\x00\x00\x00'
p287
tp288
Rp289
ag15
(g19
S'c\x00\x00\x00'
p290
tp291
Rp292
ag15
(g19
S'`\x00\x00\x00'
p293
tp294
Rp295
ag15
(g19
S'E\x00\x00\x00'
p296
tp297
Rp298
ag15
(g19
S'<\x00\x00\x00'
p299
tp300
Rp301
ag15
(g19
S'b\x00\x00\x00'
p302
tp303
Rp304
ag15
(g19
S'V\x00\x00\x00'
p305
tp306
Rp307
ag15
(g19
S'A\x00\x00\x00'
p308
tp309
Rp310
ag15
(g19
S'U\x00\x00\x00'
p311
tp312
Rp313
ag15
(g19
S'c\x00\x00\x00'
p314
tp315
Rp316
ag15
(g19
S'\\\x00\x00\x00'
p317
tp318
Rp319
ag15
(g19
S'K\x00\x00\x00'
p320
tp321
Rp322
ag15
(g19
S'd\x00\x00\x00'
p323
tp324
Rp325
ag15
(g19
S'^\x00\x00\x00'
p326
tp327
Rp328
assI5
(dp329
I1
(lp330
g15
(g19
S'S\x00\x00\x00'
p331
tp332
Rp333
ag15
(g19
S'd\x00\x00\x00'
p334
tp335
Rp336
ag15
(g19
S']\x00\x00\x00'
p337
tp338
Rp339
ag15
(g19
S'H\x00\x00\x00'
p340
tp341
Rp342
ag15
(g19
S'c\x00\x00\x00'
p343
tp344
Rp345
ag15
(g19
S'V\x00\x00\x00'
p346
tp347
Rp348
ag15
(g19
S'P\x00\x00\x00'
p349
tp350
Rp351
ag15
(g19
S'I\x00\x00\x00'
p352
tp353
Rp354
ag15
(g19
S'd\x00\x00\x00'
p355
tp356
Rp357
ag15
(g19
S']\x00\x00\x00'
p358
tp359
Rp360
ag15
(g19
S'U\x00\x00\x00'
p361
tp362
Rp363
ag15
(g19
S'O\x00\x00\x00'
p364
tp365
Rp366
ag15
(g19
S'c\x00\x00\x00'
p367
tp368
Rp369
ag15
(g19
S'[\x00\x00\x00'
p370
tp371
Rp372
ag15
(g19
S'L\x00\x00\x00'
p373
tp374
Rp375
ag15
(g19
S'S\x00\x00\x00'
p376
tp377
Rp378
ag15
(g19
S'd\x00\x00\x00'
p379
tp380
Rp381
ag15
(g19
S'^\x00\x00\x00'
p382
tp383
Rp384
ag15
(g19
S'I\x00\x00\x00'
p385
tp386
Rp387
ag15
(g19
S'Q\x00\x00\x00'
p388
tp389
Rp390
ag15
(g19
S'c\x00\x00\x00'
p391
tp392
Rp393
ag15
(g19
S']\x00\x00\x00'
p394
tp395
Rp396
ag15
(g19
S'D\x00\x00\x00'
p397
tp398
Rp399
ag15
(g19
S'G\x00\x00\x00'
p400
tp401
Rp402
ag15
(g19
S'X\x00\x00\x00'
p403
tp404
Rp405
ag15
(g19
S'A\x00\x00\x00'
p406
tp407
Rp408
ag15
(g19
S'F\x00\x00\x00'
p409
tp410
Rp411
ag15
(g19
S'b\x00\x00\x00'
p412
tp413
Rp414
ag15
(g19
S'Z\x00\x00\x00'
p415
tp416
Rp417
ag15
(g19
S'L\x00\x00\x00'
p418
tp419
Rp420
ag15
(g19
S'K\x00\x00\x00'
p421
tp422
Rp423
ag15
(g19
S'd\x00\x00\x00'
p424
tp425
Rp426
ag15
(g19
S'T\x00\x00\x00'
p427
tp428
Rp429
assI30
(dp430
I1
(lp431
g15
(g19
S'_\x00\x00\x00'
p432
tp433
Rp434
ag15
(g19
S'd\x00\x00\x00'
p435
tp436
Rp437
ag15
(g19
S'`\x00\x00\x00'
p438
tp439
Rp440
ag15
(g19
S'P\x00\x00\x00'
p441
tp442
Rp443
ag15
(g19
S'`\x00\x00\x00'
p444
tp445
Rp446
ag15
(g19
S'c\x00\x00\x00'
p447
tp448
Rp449
ag15
(g19
S'Z\x00\x00\x00'
p450
tp451
Rp452
ag15
(g19
S'U\x00\x00\x00'
p453
tp454
Rp455
ag15
(g19
S'W\x00\x00\x00'
p456
tp457
Rp458
ag15
(g19
S'b\x00\x00\x00'
p459
tp460
Rp461
ag15
(g19
S'\\\x00\x00\x00'
p462
tp463
Rp464
ag15
(g19
S'P\x00\x00\x00'
p465
tp466
Rp467
ag15
(g19
S'T\x00\x00\x00'
p468
tp469
Rp470
ag15
(g19
S'c\x00\x00\x00'
p471
tp472
Rp473
ag15
(g19
S'[\x00\x00\x00'
p474
tp475
Rp476
ag15
(g19
S'O\x00\x00\x00'
p477
tp478
Rp479
ag15
(g19
S'c\x00\x00\x00'
p480
tp481
Rp482
ag15
(g19
S'c\x00\x00\x00'
p483
tp484
Rp485
ag15
(g19
S']\x00\x00\x00'
p486
tp487
Rp488
ag15
(g19
S'E\x00\x00\x00'
p489
tp490
Rp491
ag15
(g19
S'U\x00\x00\x00'
p492
tp493
Rp494
ag15
(g19
S'[\x00\x00\x00'
p495
tp496
Rp497
ag15
(g19
S'A\x00\x00\x00'
p498
tp499
Rp500
ag15
(g19
S'[\x00\x00\x00'
p501
tp502
Rp503
ag15
(g19
S'd\x00\x00\x00'
p504
tp505
Rp506
ag15
(g19
S'[\x00\x00\x00'
p507
tp508
Rp509
ag15
(g19
S'\\\x00\x00\x00'
p510
tp511
Rp512
ag15
(g19
S'd\x00\x00\x00'
p513
tp514
Rp515
ag15
(g19
S'_\x00\x00\x00'
p516
tp517
Rp518
assssS'nl_p'
p519
(dp520
g3
(dp521
I1
(dp522
I1
(lp523
ssI10
(dp524
I1
(lp525
ssI20
(dp526
I1
(lp527
ssI5
(dp528
I1
(lp529
ssI30
(dp530
I1
(lp531
ssssS'nl_ti'
p532
(dp533
g3
(dp534
I1
(dp535
I1
(lp536
I214
aI205
aI209
aI244
aI344
aI379
aI406
aI158
aI186
aI324
aI447
aI515
aI258
aI634
aI349
aI190
aI406
aI765
aI274
aI192
aI504
aI218
aI307
aI241
aI360
aI400
aI614
aI513
aI686
aI530
aI479
aI274
aI329
aI359
aI931
aI473
assI10
(dp537
I1
(lp538
I241
aI243
aI368
aI308
aI278
aI340
aI347
aI287
aI468
aI337
aI365
aI212
aI254
aI217
aI284
aI239
aI274
aI172
aI307
aI214
aI288
aI211
aI677
aI424
aI763
aI378
aI302
aI238
aI638
aI501
aI372
aI505
aI489
assI20
(dp539
I1
(lp540
I266
aI331
aI253
aI388
aI400
aI347
aI306
aI296
aI458
aI365
aI206
aI200
aI273
aI284
aI242
aI308
aI279
aI307
aI361
aI175
aI298
aI677
aI652
aI616
aI467
aI302
aI417
aI223
aI608
aI253
aI650
aI713
assI5
(dp541
I1
(lp542
I126
aI293
aI262
aI286
aI280
aI616
aI347
aI194
aI278
aI435
aI365
aI539
aI166
aI237
aI470
aI322
aI420
aI156
aI365
aI236
aI254
aI322
aI550
aI249
aI534
aI302
aI778
aI287
aI316
aI691
aI483
aI515
aI709
assI30
(dp543
I1
(lp544
I181
aI204
aI201
aI347
aI289
aI635
aI360
aI365
aI322
aI314
aI696
aI284
aI454
aI366
aI621
aI196
aI232
aI266
aI733
aI677
aI611
aI290
aI302
aI189
aI669
aI381
aI277
aI339
aI555
assss.(dp0
S'random_t35_d5_r10_168986101.mat'
p1
I1
sS'random_t35_d10_r7_173254538.mat'
p2
I1
sS'random_t35_d1_r10_168927989.mat'
p3
I1
sS'random_t35_d20_r8_173273156.mat'
p4
I1
sS'random_t35_d20_r3_173260576.mat'
p5
I1
sS'random_t35_d5_r8_170815216.mat'
p6
I1
sS'random_t35_d30_r7_173284354.mat'
p7
I0
sS'random_t35_d1_r6_170751192.mat'
p8
I1
sS'random_t35_d20_r7_173269446.mat'
p9
I1
sS'random_t35_d1_r4_170745046.mat'
p10
I1
sS'random_t35_d5_r5_168356490.mat'
p11
I1
sS'random_t35_d20_r8_170809153.mat'
p12
I1
sS'random_t35_d1_r4_168296097.mat'
p13
I1
sS'random_t35_d1_r3_168640038.mat'
p14
I1
sS'random_t35_d20_r6_171152548.mat'
p15
I1
sS'random_t35_d30_r7_171169702.mat'
p16
I1
sS'random_t35_d10_r7_170792044.mat'
p17
I1
sS'random_t35_d1_r2_170741288.mat'
p18
I1
sS'random_t35_d20_r8_171157520.mat'
p19
I1
sS'random_t35_d10_r9_173259570.mat'
p20
I1
sS'random_t35_d30_r7_170821300.mat'
p21
I1
sS'random_t35_d10_r10_171420213.mat'
p22
I1
sS'random_t35_d10_r7_171140366.mat'
p23
I1
sS'random_t35_d10_r2_171127936.mat'
p24
I1
sS'random_t35_d1_r10_171033095.mat'
p25
I1
sS'random_t35_d1_r8_170754950.mat'
p26
I1
sS'random_t35_d10_r8_173258248.mat'
p27
I1
sS'random_t35_d30_r10_171100937.mat'
p28
I0
sS'random_t35_d5_r10_168639329.mat'
p29
I0
sS'random_t35_d20_r3_171145090.mat'
p30
I1
sS'random_t35_d1_r9_170758620.mat'
p31
I1
sS'random_t35_d10_r3_173244474.mat'
p32
I1
sS'random_t35_d1_r2_168637592.mat'
p33
I1
sS'random_t35_d30_r6_170818819.mat'
p34
I1
sS'random_t35_d10_r8_171142852.mat'
p35
I1
sS'random_t35_d1_r3_170743764.mat'
p36
I1
sS'random_t35_d1_r5_170747522.mat'
p37
I1
sS'random_t35_d1_r6_168300979.mat'
p38
I0
sS'random_t35_d10_r2_173243152.mat'
p39
I1
sS'random_t35_d20_r3_170796748.mat'
p40
I1
sS'random_t35_d20_r5_173264414.mat'
p41
I1
sS'random_t35_d10_r4_171132908.mat'
p42
I1
sS'random_t35_d30_r4_173276806.mat'
p43
I1
sS'random_t35_d1_r10_170681621.mat'
p44
I1
sS'random_t35_d5_r5_170806594.mat'
p45
I1
sS'random_t35_d30_r6_173283032.mat'
p46
I1
sS'random_t35_d1_r10_170682795.mat'
p47
I1
sS'random_t35_d20_r9_170811634.mat'
p48
I0
sS'random_t35_d30_r3_173274290.mat'
p49
I1
sS'random_t35_d20_r4_170799229.mat'
p50
I1
sS'random_t35_d1_r8_168305861.mat'
p51
I0
sS'random_t35_d10_r2_173241958.mat'
p52
I1
sS'random_t35_d20_r7_171155034.mat'
p53
I1
sS'random_t35_d5_r7_170812740.mat'
p54
I1
sS'random_t35_d30_r8_173288064.mat'
p55
I1
sS'random_t35_d5_r3_168698150.mat'
p56
I1
sS'random_t35_d20_r5_171150062.mat'
p57
I1
sS'random_t35_d30_r9_171174674.mat'
p58
I1
sS'random_t35_d5_r4_170804118.mat'
p59
I1
sS'random_t35_d1_r7_170752474.mat'
p60
I1
sS'random_t35_d10_r6_173252022.mat'
p61
I1
sS'random_t35_d10_r3_170782120.mat'
p62
I1
sS'random_t35_d1_r9_168308302.mat'
p63
I1
sS'random_t35_d1_r4_170746240.mat'
p64
I1
sS'random_t35_d5_r9_170816498.mat'
p65
I1
sS'random_t35_d30_r9_173289386.mat'
p66
I1
sS'random_t35_d1_r6_170749998.mat'
p67
I1
sS'random_t35_d5_r9_168712826.mat'
p68
I1
sS'random_t35_d30_r6_173281838.mat'
p69
I1
sS'random_t35_d10_r10_171071681.mat'
p70
I0
sS'random_t35_d10_r2_170779639.mat'
p71
I0
sS'random_t35_d20_r10_171434881.mat'
p72
I1
sS'random_t35_d5_r3_168351608.mat'
p73
I1
sS'random_t35_d5_r3_170801642.mat'
p74
I1
sS'random_t35_d20_r6_173268124.mat'
p75
I1
sS'random_t35_d5_r10_171090973.mat'
p76
I1
sS'random_t35_d1_r5_168298538.mat'
p77
I1
sS'random_t35_d1_r10_171031901.mat'
p78
I1
sS'random_t35_d20_r6_173266930.mat'
p79
I1
sS'random_t35_d1_r10_168581377.mat'
p80
I1
sS'random_t35_d20_r6_170804191.mat'
p81
I1
sS'random_t35_d5_r2_170800360.mat'
p82
I1
sS'random_t35_d30_r5_170816338.mat'
p83
I1
sS'random_t35_d1_r2_168291215.mat'
p84
I1
sS'random_t35_d30_r8_170823781.mat'
p85
I1
sS'random_t35_d20_r10_171086309.mat'
p86
I0
sS'random_t35_d30_r5_173279322.mat'
p87
I1
sS'random_t35_d5_r8_168363813.mat'
p88
I1
sS'random_t35_d20_r8_173271962.mat'
p89
I1
sS'random_t35_d1_r8_170756144.mat'
p90
I1
sS'random_t35_d10_r8_170794525.mat'
p91
I1
sS'random_t35_d10_r4_170784601.mat'
p92
I1
sS'random_t35_d30_r9_170826262.mat'
p93
I0
sS'random_t35_d10_r8_173257054.mat'
p94
I1
sS'random_t35_d30_r5_171164730.mat'
p95
I1
sS'random_t35_d30_r6_171167216.mat'
p96
I1
sS'random_t35_d20_r7_173270640.mat'
p97
I1
sS'random_t35_d5_r2_168695704.mat'
p98
I1
sS'random_t35_d1_r7_168649822.mat'
p99
I1
sS'random_t35_d5_r2_170799166.mat'
p100
I1
sS'random_t35_d20_r4_171147576.mat'
p101
I1
sS'random_t35_d20_r4_173261898.mat'
p102
I1
sS'random_t35_d5_r8_170814022.mat'
p103
I1
sS'random_t35_d20_r2_173256866.mat'
p104
I1
sS'random_t35_d30_r10_173565461.mat'
p105
I1
sS'random_t35_d1_r3_168293656.mat'
p106
I0
sS'random_t35_d30_r10_171449549.mat'
p107
I1
sS'random_t35_d1_r8_168652268.mat'
p108
I1
sS'random_t35_d20_r7_170806672.mat'
p109
I1
sS'random_t35_d20_r9_173275672.mat'
p110
I1
sS'random_t35_d10_r4_173248184.mat'
p111
I1
sS'random_t35_d10_r5_171135394.mat'
p112
I1
sS'random_t35_d5_r5_170807788.mat'
p113
I1
sS'random_t35_d30_r4_173278000.mat'
p114
I1
sS'random_t35_d5_r7_168361372.mat'
p115
I1
sS'random_t35_d30_r4_171162244.mat'
p116
I1
sS'random_t35_d10_r10_173535645.mat'
p117
I1
sS'random_t35_d5_r4_168354049.mat'
p118
I1
sS'random_t35_d5_r4_170805312.mat'
p119
I1
sS'random_t35_d1_r9_170757426.mat'
p120
I1
sS'random_t35_d5_r7_170811546.mat'
p121
I0
sS'random_t35_d30_r8_173286870.mat'
p122
I1
sS'random_t35_d10_r3_173245668.mat'
p123
I1
sS'random_t35_d30_r9_173290580.mat'
p124
I1
sS'random_t35_d1_r4_168642484.mat'
p125
I1
sS'random_t35_d1_r9_168654714.mat'
p126
I1
sS'random_t35_d5_r8_168710380.mat'
p127
I1
sS'random_t35_d20_r10_173551747.mat'
p128
I1
sS'random_t35_d10_r6_171137880.mat'
p129
I1
sS'random_t35_d1_r2_170740094.mat'
p130
I1
sS'random_t35_d20_r2_173258060.mat'
p131
I1
sS'random_t35_d10_r5_173249506.mat'
p132
I1
sS'random_t35_d1_r3_170742570.mat'
p133
I1
sS'random_t35_d10_r6_170789563.mat'
p134
I1
sS'random_t35_d30_r4_170813857.mat'
p135
I1
sS'random_t35_d30_r3_171159758.mat'
p136
I1
sS'random_t35_d1_r5_170748716.mat'
p137
I1
sS'random_t35_d10_r4_173246990.mat'
p138
I1
sS'random_t35_d20_r4_173263092.mat'
p139
I1
sS'random_t35_d5_r6_168705488.mat'
p140
I1
sS'random_t35_d10_r10_173536839.mat'
p141
I1
sS'random_t35_d30_r3_170811376.mat'
p142
I1
sS'random_t35_d5_r7_168707934.mat'
p143
I1
sS'random_t35_d30_r8_171172188.mat'
p144
I1
sS'random_t35_d1_r7_168303420.mat'
p145
I1
sS'random_t35_d10_r9_170797006.mat'
p146
I0
sS'random_t35_d1_r6_168647376.mat'
p147
I1
sS'random_t35_d30_r3_173275484.mat'
p148
I1
sS'random_t35_d30_r7_173285548.mat'
p149
I1
sS'random_t35_d5_r6_170809070.mat'
p150
I1
sS'random_t35_d10_r9_171145338.mat'
p151
I1
sS'random_t35_d20_r5_173265608.mat'
p152
I1
sS'random_t35_d5_r3_170802836.mat'
p153
I1
sS'random_t35_d10_r5_170787082.mat'
p154
I1
sS'random_t35_d30_r10_173566655.mat'
p155
I1
sS'random_t35_d10_r9_173260764.mat'
p156
I1
sS'random_t35_d5_r6_170810264.mat'
p157
I1
sS'random_t35_d1_r10_168579169.mat'
p158
I1
sS'random_t35_d20_r9_173274478.mat'
p159
I1
sS'random_t35_d5_r4_168700596.mat'
p160
I1
sS'random_t35_d1_r7_170753668.mat'
p161
I1
sS'random_t35_d30_r5_173280516.mat'
p162
I1
sS'random_t35_d1_r5_168644930.mat'
p163
I1
sS'random_t35_d5_r5_168703042.mat'
p164
I1
sS'random_t35_d10_r3_171130422.mat'
p165
I1
sS'random_t35_d10_r7_173255732.mat'
p166
I1
sS'random_t35_d5_r10_171092167.mat'
p167
I1
sS'random_t35_d20_r10_173550553.mat'
p168
I1
sS'random_t35_d20_r3_173259382.mat'
p169
I1
sS'random_t35_d5_r9_168366254.mat'
p170
I1
sS'random_t35_d5_r2_168349167.mat'
p171
I0
sS'random_t35_d20_r9_171160006.mat'
p172
I1
sS'random_t35_d20_r5_170801710.mat'
p173
I1
sS'random_t35_d10_r6_173253216.mat'
p174
I1
sS'random_t35_d5_r9_170817692.mat'
p175
I1
sS'random_t35_d10_r5_173250700.mat'
p176
I1
sS'random_t35_d5_r6_168358931.mat'
p177
I1
s.